target datalayout = "e-m:e-p270:32:32-p271:32:32-p272:64:64-i64:64-i128:128-f80:128-n8:16:32:64-S128"
target triple = "x86_64-pc-linux-gnu"

%"struct.llvm::EVT" = type { %"class.llvm::MVT", ptr }
%"class.llvm::MVT" = type { i16 }
%"class.llvm::ElementCount" = type { %"class.llvm::details::FixedOrScalableQuantity.base.1", [3 x i8] }
%"class.llvm::details::FixedOrScalableQuantity.base.1" = type <{ i32, i8 }>

; Function Attrs: mustprogress nounwind uwtable
define linkonce_odr hidden void @_ZN4llvm3MVTC2ENS0_15SimpleValueTypeE(ptr noundef nonnull align 2 dereferenceable(2) %0, i16 noundef zeroext %1) unnamed_addr #0 comdat align 2 {
  %3 = alloca ptr, align 8
  %4 = alloca i16, align 2
  store ptr %0, ptr %3, align 8
  store i16 %1, ptr %4, align 2
  %5 = load ptr, ptr %3, align 8
  %6 = getelementptr inbounds nuw %"class.llvm::MVT", ptr %5, i32 0, i32 0
  %7 = load i16, ptr %4, align 2
  store i16 %7, ptr %6, align 2
  ret void
}

; Function Attrs: mustprogress nounwind uwtable
define linkonce_odr hidden void @_ZN4llvm3EVTC2Ev(ptr noundef nonnull align 8 dereferenceable(16) %0) unnamed_addr #0 comdat align 2 {
  %2 = alloca ptr, align 8
  store ptr %0, ptr %2, align 8
  %3 = load ptr, ptr %2, align 8
  %4 = getelementptr inbounds nuw %"struct.llvm::EVT", ptr %3, i32 0, i32 0
  call void @_ZN4llvm3MVTC2ENS0_15SimpleValueTypeE(ptr noundef nonnull align 2 dereferenceable(2) %4, i16 noundef zeroext 0)
  %5 = getelementptr inbounds nuw %"struct.llvm::EVT", ptr %3, i32 0, i32 1
  store ptr null, ptr %5, align 8
  ret void
}

; Function Attrs: mustprogress nounwind uwtable
define dso_local { i16, ptr } @_ZN4llvm3EVT19getExtendedVectorVTERNS_11LLVMContextES0_NS_12ElementCountE(ptr noundef nonnull align 1 %0, i16 %1, ptr %2, i64 %3) #0 align 2 {
  %5 = alloca %"struct.llvm::EVT", align 8
  %6 = alloca %"struct.llvm::EVT", align 8
  %7 = alloca %"class.llvm::ElementCount", align 4
  %8 = alloca ptr, align 8
  %9 = alloca %"class.llvm::ElementCount", align 4
  %10 = getelementptr inbounds nuw { i16, ptr }, ptr %6, i32 0, i32 0
  store i16 %1, ptr %10, align 8
  %11 = getelementptr inbounds nuw { i16, ptr }, ptr %6, i32 0, i32 1
  store ptr %2, ptr %11, align 8
  store i64 %3, ptr %7, align 4
  store ptr %0, ptr %8, align 8
  call void @_ZN4llvm3EVTC2Ev(ptr noundef nonnull align 8 dereferenceable(16) %5)
  %12 = load ptr, ptr %8, align 8
  %13 = call noundef ptr @_ZNK4llvm3EVT13getTypeForEVTERNS_11LLVMContextE(ptr noundef nonnull align 8 dereferenceable(16) %6, ptr noundef nonnull align 1 %12)
  call void @llvm.memcpy.p0.p0.i64(ptr align 4 %9, ptr align 4 %7, i64 8, i1 false)
  %14 = load i64, ptr %9, align 4
  %15 = call noundef ptr @_ZN4llvm10VectorType3getEPNS_4TypeENS_12ElementCountE(ptr noundef %13, i64 %14)
  %16 = getelementptr inbounds nuw %"struct.llvm::EVT", ptr %5, i32 0, i32 1
  store ptr %15, ptr %16, align 8
  %17 = load { i16, ptr }, ptr %5, align 8
  ret { i16, ptr } %17
}