; Function Attrs: mustprogress nounwind uwtable
define dso_local { i16, ptr } @_ZN4llvm3EVT19getExtendedVectorVTERNS_11LLVMContextES0_NS_12ElementCountE(ptr noundef nonnull align 1 %0, i16 %1, ptr %2, i64 %3) local_unnamed_addr #0 align 2 {
  %5 = alloca %"struct.llvm::EVT", align 8
  store i16 %1, ptr %5, align 8
  %6 = getelementptr inbounds nuw i8, ptr %5, i64 8
  store ptr %2, ptr %6, align 8
  %7 = call noundef ptr @_ZNK4llvm3EVT13getTypeForEVTERNS_11LLVMContextE(ptr noundef nonnull align 8 dereferenceable(16) %5, ptr noundef nonnull align 1 %0)
  %8 = tail call noundef ptr @_ZN4llvm10VectorType3getEPNS_4TypeENS_12ElementCountE(ptr noundef %7, i64 %3) #15
  %.fca.1.insert = insertvalue { i16, ptr } { i16 0, ptr poison }, ptr %8, 1
  ret { i16, ptr } %.fca.1.insert
}